; Function Attrs: nounwind uwtable
define dso_local ptr @tuplehash_create(ptr noundef %0, i32 noundef %1, ptr noundef %2) local_unnamed_addr #0 {
  %4 = tail call ptr @MemoryContextAllocZero(ptr noundef %0, i64 noundef 48) #15
  %5 = getelementptr inbounds nuw i8, ptr %4, i64 32
  store ptr %0, ptr %5, align 8
  %6 = getelementptr inbounds nuw i8, ptr %4, i64 40
  store ptr %2, ptr %6, align 8
  %7 = uitofp i32 %1 to double
  %8 = fdiv double %7, 9.000000e-01
  %9 = fcmp ogt double %8, 0x41F0000000000000
  %10 = select i1 %9, double 0x41F0000000000000, double %8
  %11 = fptoui double %10 to i64
  %12 = tail call i64 @llvm.umax.i64(i64 %11, i64 2)
  %13 = tail call range(i64 1, 65) i64 @llvm.ctpop.i64(i64 %12)
  %14 = icmp samesign ult i64 %13, 2
  %15 = tail call range(i64 0, 65) i64 @llvm.ctlz.i64(i64 %12, i1 true)
  %16 = sub nuw nsw i64 64, %15
  %17 = shl nuw i64 1, %16
  %.0.i.i = select i1 %14, i64 %12, i64 %17
  %18 = mul i64 %.0.i.i, 24
  %19 = icmp ugt i64 %18, 9223372036854775806
  br i1 %19, label %20, label %tuplehash_compute_size.exit, !prof !4

20:                                               ; preds = %3
  %21 = tail call zeroext i1 @errstart_cold(i32 noundef 21, ptr noundef null) #16
  tail call void @llvm.assume(i1 %21)
  %22 = tail call i32 (ptr, ...) @errmsg_internal(ptr noundef nonnull @.str.4) #15
  tail call void @errfinish(ptr noundef nonnull @.str.1, i32 noundef 327, ptr noundef nonnull @__func__.tuplehash_compute_size) #15
  unreachable

tuplehash_compute_size.exit:                      ; preds = %3
  %23 = tail call ptr @MemoryContextAllocExtended(ptr noundef %0, i64 noundef %18, i32 noundef 5) #15
  %24 = getelementptr inbounds nuw i8, ptr %4, i64 24
  store ptr %23, ptr %24, align 8
  %25 = tail call range(i64 1, 65) i64 @llvm.ctpop.i64(i64 %.0.i.i)
  %26 = icmp samesign ult i64 %25, 2
  %27 = tail call range(i64 0, 65) i64 @llvm.ctlz.i64(i64 %.0.i.i, i1 true)
  %28 = sub nuw nsw i64 64, %27
  %29 = shl nuw i64 1, %28
  %.0.i.i.i = select i1 %26, i64 %.0.i.i, i64 %29
  %30 = mul i64 %.0.i.i.i, 24
  %31 = icmp ugt i64 %30, 9223372036854775806
  br i1 %31, label %32, label %tuplehash_update_parameters.exit, !prof !4

32:                                               ; preds = %tuplehash_compute_size.exit
  %33 = tail call zeroext i1 @errstart_cold(i32 noundef 21, ptr noundef null) #16
  tail call void @llvm.assume(i1 %33)
  %34 = tail call i32 (ptr, ...) @errmsg_internal(ptr noundef nonnull @.str.4) #15
  tail call void @errfinish(ptr noundef nonnull @.str.1, i32 noundef 327, ptr noundef nonnull @__func__.tuplehash_compute_size) #15
  unreachable

tuplehash_update_parameters.exit:                 ; preds = %tuplehash_compute_size.exit
  store i64 %.0.i.i.i, ptr %4, align 8
  %35 = trunc i64 %.0.i.i.i to i32
  %36 = add i32 %35, -1
  %37 = getelementptr inbounds nuw i8, ptr %4, i64 12
  store i32 %36, ptr %37, align 4
  %38 = icmp eq i64 %.0.i.i.i, 4294967296
  %39 = uitofp i64 %.0.i.i.i to double
  %40 = fmul double %39, 9.000000e-01
  %41 = fptoui double %40 to i32
  %.sink.i = select i1 %38, i32 -85899346, i32 %41
  %42 = getelementptr inbounds nuw i8, ptr %4, i64 16
  store i32 %.sink.i, ptr %42, align 8
  ret ptr %4
}